	.text
	.file	"4o5qubxhz5qos72u"
	.section	.text._ZN3std10sys_common9backtrace28__rust_begin_short_backtrace17hfefa000b5d799abcE,"ax",@progbits
	.p2align	4, 0x90
	.type	_ZN3std10sys_common9backtrace28__rust_begin_short_backtrace17hfefa000b5d799abcE,@function
_ZN3std10sys_common9backtrace28__rust_begin_short_backtrace17hfefa000b5d799abcE:
.Lfunc_begin0:
	.file	1 "/rustc/82e1608dfa6e0b5569232559e3d385fea5a93112/library/std/src/sys_common" "backtrace.rs"
	.loc	1 150 0
	.cfi_startproc
	subq	$24, %rsp
	.cfi_def_cfa_offset 32
.Ltmp0:
	.file	2 "/rustc/82e1608dfa6e0b5569232559e3d385fea5a93112/library/core/src" "hint.rs"
	.loc	2 285 27 prologue_end
	movq	%rdi, 16(%rsp)
.Ltmp1:
	.loc	1 154 18
	callq	_ZN4core3ops8function6FnOnce9call_once17h8440d6d39ce03527E
.Ltmp2:
	.loc	2 286 5
	#APP
	#NO_APP
.Ltmp3:
	.loc	1 160 2 epilogue_begin
	addq	$24, %rsp
	.cfi_def_cfa_offset 8
	retq
.Ltmp4:
.Lfunc_end0:
	.size	_ZN3std10sys_common9backtrace28__rust_begin_short_backtrace17hfefa000b5d799abcE, .Lfunc_end0-_ZN3std10sys_common9backtrace28__rust_begin_short_backtrace17hfefa000b5d799abcE
	.cfi_endproc

	.section	.text._ZN3std2rt10lang_start17h6c79dc9752266d3fE,"ax",@progbits
	.hidden	_ZN3std2rt10lang_start17h6c79dc9752266d3fE
	.globl	_ZN3std2rt10lang_start17h6c79dc9752266d3fE
	.p2align	4, 0x90
	.type	_ZN3std2rt10lang_start17h6c79dc9752266d3fE,@function
_ZN3std2rt10lang_start17h6c79dc9752266d3fE:
.Lfunc_begin1:
	.file	3 "/rustc/82e1608dfa6e0b5569232559e3d385fea5a93112/library/std/src" "rt.rs"
	.loc	3 160 0
	.cfi_startproc
	subq	$56, %rsp
	.cfi_def_cfa_offset 64
	movl	%ecx, %eax
	movq	%rdx, %rcx
	movq	%rsi, %rdx
	movq	%rdi, 16(%rsp)
	movq	%rdx, 24(%rsp)
	movq	%rcx, 32(%rsp)
	movb	%al, 47(%rsp)
.Ltmp5:
	.loc	3 167 10 prologue_end
	movq	%rdi, 8(%rsp)
	.loc	3 166 17
	leaq	8(%rsp), %rdi
	leaq	.L__unnamed_1(%rip), %rsi
	movzbl	%al, %r8d
	callq	*_ZN3std2rt19lang_start_internal17h12de51168669836eE@GOTPCREL(%rip)
	movq	%rax, (%rsp)
	.loc	3 166 12 is_stmt 0
	movq	(%rsp), %rax
	movq	%rax, 48(%rsp)
	.loc	3 173 2 epilogue_begin is_stmt 1
	addq	$56, %rsp
	.cfi_def_cfa_offset 8
	retq
.Ltmp6:
.Lfunc_end1:
	.size	_ZN3std2rt10lang_start17h6c79dc9752266d3fE, .Lfunc_end1-_ZN3std2rt10lang_start17h6c79dc9752266d3fE
	.cfi_endproc

	.section	".text._ZN3std2rt10lang_start28_$u7b$$u7b$closure$u7d$$u7d$17he5098eb6c8c9e4d1E","ax",@progbits
	.p2align	4, 0x90
	.type	_ZN3std2rt10lang_start28_$u7b$$u7b$closure$u7d$$u7d$17he5098eb6c8c9e4d1E,@function
_ZN3std2rt10lang_start28_$u7b$$u7b$closure$u7d$$u7d$17he5098eb6c8c9e4d1E:
.Lfunc_begin2:
	.loc	3 167 0
	.cfi_startproc
	subq	$24, %rsp
	.cfi_def_cfa_offset 32
	movq	%rdi, 8(%rsp)
.Ltmp7:
	.loc	3 167 77 prologue_end
	movq	(%rdi), %rdi
	.loc	3 167 18 is_stmt 0
	callq	_ZN3std10sys_common9backtrace28__rust_begin_short_backtrace17hfefa000b5d799abcE
	callq	_ZN54_$LT$$LP$$RP$$u20$as$u20$std..process..Termination$GT$6report17h2adc51a03d32ff63E
	movb	%al, 7(%rsp)
.Ltmp8:
	.file	4 "/rustc/82e1608dfa6e0b5569232559e3d385fea5a93112/library/std/src" "process.rs"
	.loc	4 1959 9 is_stmt 1
	leaq	7(%rsp), %rax
	movq	%rax, 16(%rsp)
.Ltmp9:
	.file	5 "/rustc/82e1608dfa6e0b5569232559e3d385fea5a93112/library/std/src/sys/unix/process" "process_common.rs"
	.loc	5 640 9
	movzbl	7(%rsp), %eax
.Ltmp10:
	.loc	3 167 100 epilogue_begin
	addq	$24, %rsp
	.cfi_def_cfa_offset 8
	retq
.Ltmp11:
.Lfunc_end2:
	.size	_ZN3std2rt10lang_start28_$u7b$$u7b$closure$u7d$$u7d$17he5098eb6c8c9e4d1E, .Lfunc_end2-_ZN3std2rt10lang_start28_$u7b$$u7b$closure$u7d$$u7d$17he5098eb6c8c9e4d1E
	.cfi_endproc

	.section	.text._ZN4core3fmt9Arguments9new_const17h600ff925412ede75E,"ax",@progbits
	.p2align	4, 0x90
	.type	_ZN4core3fmt9Arguments9new_const17h600ff925412ede75E,@function
_ZN4core3fmt9Arguments9new_const17h600ff925412ede75E:
.Lfunc_begin3:
	.file	6 "/rustc/82e1608dfa6e0b5569232559e3d385fea5a93112/library/core/src/fmt" "mod.rs"
	.loc	6 321 0
	.cfi_startproc
	subq	$120, %rsp
	.cfi_def_cfa_offset 128
	movq	%rdx, 8(%rsp)
	movq	%rsi, 16(%rsp)
	movq	%rdi, 24(%rsp)
	movq	%rdi, 32(%rsp)
	movq	%rsi, 104(%rsp)
	movq	%rdx, 112(%rsp)
.Ltmp12:
	.loc	6 322 12 prologue_end
	cmpq	$1, %rdx
	ja	.LBB3_2
	.loc	6 0 12 is_stmt 0
	movq	32(%rsp), %rax
	movq	24(%rsp), %rcx
	movq	8(%rsp), %rdx
	movq	16(%rsp), %rsi
	.loc	6 325 34 is_stmt 1
	movq	$0, 88(%rsp)
	.loc	6 325 9 is_stmt 0
	movq	%rsi, (%rcx)
	movq	%rdx, 8(%rcx)
	movq	88(%rsp), %rsi
	movq	96(%rsp), %rdx
	movq	%rsi, 32(%rcx)
	movq	%rdx, 40(%rcx)
	leaq	.L__unnamed_2(%rip), %rdx
	movq	%rdx, 16(%rcx)
	movq	$0, 24(%rcx)
	.loc	6 326 6 epilogue_begin is_stmt 1
	addq	$120, %rsp
	.cfi_def_cfa_offset 8
	retq
.LBB3_2:
	.cfi_def_cfa_offset 128
	.loc	6 323 13
	leaq	.L__unnamed_3(%rip), %rsi
	leaq	40(%rsp), %rdi
	movq	%rdi, (%rsp)
	movl	$1, %edx
	callq	_ZN4core3fmt9Arguments9new_const17h600ff925412ede75E
	movq	(%rsp), %rdi
	leaq	.L__unnamed_4(%rip), %rsi
	movq	_ZN4core9panicking9panic_fmt17hbf0e066aabfa482cE@GOTPCREL(%rip), %rax
	callq	*%rax
	ud2
.Ltmp13:
.Lfunc_end3:
	.size	_ZN4core3fmt9Arguments9new_const17h600ff925412ede75E, .Lfunc_end3-_ZN4core3fmt9Arguments9new_const17h600ff925412ede75E
	.cfi_endproc

	.section	".text._ZN4core3ops8function6FnOnce40call_once$u7b$$u7b$vtable.shim$u7d$$u7d$17h00826ed0eb83ff4bE","ax",@progbits
	.p2align	4, 0x90
	.type	_ZN4core3ops8function6FnOnce40call_once$u7b$$u7b$vtable.shim$u7d$$u7d$17h00826ed0eb83ff4bE,@function
_ZN4core3ops8function6FnOnce40call_once$u7b$$u7b$vtable.shim$u7d$$u7d$17h00826ed0eb83ff4bE:
.Lfunc_begin4:
	.file	7 "/rustc/82e1608dfa6e0b5569232559e3d385fea5a93112/library/core/src/ops" "function.rs"
	.loc	7 250 0
	.cfi_startproc
	subq	$24, %rsp
	.cfi_def_cfa_offset 32
	movq	%rdi, 16(%rsp)
.Ltmp14:
	.loc	7 250 5 prologue_end
	movq	(%rdi), %rdi
	callq	_ZN4core3ops8function6FnOnce9call_once17hf448973f4f8dc96fE
	.loc	7 250 5 epilogue_begin is_stmt 0
	addq	$24, %rsp
	.cfi_def_cfa_offset 8
	retq
.Ltmp15:
.Lfunc_end4:
	.size	_ZN4core3ops8function6FnOnce40call_once$u7b$$u7b$vtable.shim$u7d$$u7d$17h00826ed0eb83ff4bE, .Lfunc_end4-_ZN4core3ops8function6FnOnce40call_once$u7b$$u7b$vtable.shim$u7d$$u7d$17h00826ed0eb83ff4bE
	.cfi_endproc

	.section	.text._ZN4core3ops8function6FnOnce9call_once17h8440d6d39ce03527E,"ax",@progbits
	.p2align	4, 0x90
	.type	_ZN4core3ops8function6FnOnce9call_once17h8440d6d39ce03527E,@function
_ZN4core3ops8function6FnOnce9call_once17h8440d6d39ce03527E:
.Lfunc_begin5:
	.loc	7 250 0 is_stmt 1
	.cfi_startproc
	subq	$24, %rsp
	.cfi_def_cfa_offset 32
	movq	%rdi, 16(%rsp)
.Ltmp16:
	.loc	7 250 5 prologue_end
	callq	*%rdi
	.loc	7 250 5 epilogue_begin is_stmt 0
	addq	$24, %rsp
	.cfi_def_cfa_offset 8
	retq
.Ltmp17:
.Lfunc_end5:
	.size	_ZN4core3ops8function6FnOnce9call_once17h8440d6d39ce03527E, .Lfunc_end5-_ZN4core3ops8function6FnOnce9call_once17h8440d6d39ce03527E
	.cfi_endproc

	.section	.text._ZN4core3ops8function6FnOnce9call_once17hf448973f4f8dc96fE,"ax",@progbits
	.p2align	4, 0x90
	.type	_ZN4core3ops8function6FnOnce9call_once17hf448973f4f8dc96fE,@function
_ZN4core3ops8function6FnOnce9call_once17hf448973f4f8dc96fE:
.Lfunc_begin6:
	.loc	7 250 0 is_stmt 1
	.cfi_startproc
	.cfi_personality 155, DW.ref.rust_eh_personality
	.cfi_lsda 27, .Lexception0
	subq	$40, %rsp
	.cfi_def_cfa_offset 48
	movq	%rdi, 8(%rsp)
.Ltmp18:
	leaq	8(%rsp), %rdi
.Ltmp21:
	.loc	7 250 5 prologue_end
	callq	_ZN3std2rt10lang_start28_$u7b$$u7b$closure$u7d$$u7d$17he5098eb6c8c9e4d1E
.Ltmp19:
	movl	%eax, 4(%rsp)
	jmp	.LBB6_3
.LBB6_1:
	movq	24(%rsp), %rdi
	callq	_Unwind_Resume@PLT
	ud2
.LBB6_2:
.Ltmp20:
	.loc	7 0 5 is_stmt 0
	movq	%rax, %rcx
	movl	%edx, %eax
	movq	%rcx, 24(%rsp)
	movl	%eax, 32(%rsp)
	jmp	.LBB6_1
.LBB6_3:
	movl	4(%rsp), %eax
	.loc	7 250 5 epilogue_begin
	addq	$40, %rsp
	.cfi_def_cfa_offset 8
	retq
.Ltmp22:
.Lfunc_end6:
	.size	_ZN4core3ops8function6FnOnce9call_once17hf448973f4f8dc96fE, .Lfunc_end6-_ZN4core3ops8function6FnOnce9call_once17hf448973f4f8dc96fE
	.cfi_endproc
	.section	.gcc_except_table._ZN4core3ops8function6FnOnce9call_once17hf448973f4f8dc96fE,"a",@progbits
	.p2align	2, 0x0
GCC_except_table6:
.Lexception0:
	.byte	255
	.byte	255
	.byte	1
	.uleb128 .Lcst_end0-.Lcst_begin0
.Lcst_begin0:
	.uleb128 .Ltmp18-.Lfunc_begin6
	.uleb128 .Ltmp19-.Ltmp18
	.uleb128 .Ltmp20-.Lfunc_begin6
	.byte	0
	.uleb128 .Ltmp19-.Lfunc_begin6
	.uleb128 .Lfunc_end6-.Ltmp19
	.byte	0
	.byte	0
.Lcst_end0:
	.p2align	2, 0x0

	.section	".text._ZN4core3ptr85drop_in_place$LT$std..rt..lang_start$LT$$LP$$RP$$GT$..$u7b$$u7b$closure$u7d$$u7d$$GT$17h569c6b3f6841fb8eE","ax",@progbits
	.p2align	4, 0x90
	.type	_ZN4core3ptr85drop_in_place$LT$std..rt..lang_start$LT$$LP$$RP$$GT$..$u7b$$u7b$closure$u7d$$u7d$$GT$17h569c6b3f6841fb8eE,@function
_ZN4core3ptr85drop_in_place$LT$std..rt..lang_start$LT$$LP$$RP$$GT$..$u7b$$u7b$closure$u7d$$u7d$$GT$17h569c6b3f6841fb8eE:
.Lfunc_begin7:
	.file	8 "/rustc/82e1608dfa6e0b5569232559e3d385fea5a93112/library/core/src/ptr" "mod.rs"
	.loc	8 498 0 is_stmt 1
	.cfi_startproc
	movq	%rdi, -8(%rsp)
.Ltmp23:
	.loc	8 498 1 prologue_end
	retq
.Ltmp24:
.Lfunc_end7:
	.size	_ZN4core3ptr85drop_in_place$LT$std..rt..lang_start$LT$$LP$$RP$$GT$..$u7b$$u7b$closure$u7d$$u7d$$GT$17h569c6b3f6841fb8eE, .Lfunc_end7-_ZN4core3ptr85drop_in_place$LT$std..rt..lang_start$LT$$LP$$RP$$GT$..$u7b$$u7b$closure$u7d$$u7d$$GT$17h569c6b3f6841fb8eE
	.cfi_endproc

	.section	".text._ZN54_$LT$$LP$$RP$$u20$as$u20$std..process..Termination$GT$6report17h2adc51a03d32ff63E","ax",@progbits
	.p2align	4, 0x90
	.type	_ZN54_$LT$$LP$$RP$$u20$as$u20$std..process..Termination$GT$6report17h2adc51a03d32ff63E,@function
_ZN54_$LT$$LP$$RP$$u20$as$u20$std..process..Termination$GT$6report17h2adc51a03d32ff63E:
.Lfunc_begin8:
	.cfi_startproc
	.loc	4 2333 6 prologue_end
	xorl	%eax, %eax
	retq
.Ltmp25:
.Lfunc_end8:
	.size	_ZN54_$LT$$LP$$RP$$u20$as$u20$std..process..Termination$GT$6report17h2adc51a03d32ff63E, .Lfunc_end8-_ZN54_$LT$$LP$$RP$$u20$as$u20$std..process..Termination$GT$6report17h2adc51a03d32ff63E
	.cfi_endproc

	.section	.text._ZN16cargo_rustc_test4main17h6f4ee350dbc3533eE,"ax",@progbits
	.p2align	4, 0x90
	.type	_ZN16cargo_rustc_test4main17h6f4ee350dbc3533eE,@function
_ZN16cargo_rustc_test4main17h6f4ee350dbc3533eE:
.Lfunc_begin9:
	.file	9 "/home/gyoung/my_project/Rust_lang/rust_release/07_cargo_rustc/cargo_rustc_test" "src/main.rs"
	.loc	9 1 0
	.cfi_startproc
	subq	$56, %rsp
	.cfi_def_cfa_offset 64
.Ltmp26:
	.loc	9 2 5 prologue_end
	leaq	8(%rsp), %rdi
	leaq	.L__unnamed_5(%rip), %rsi
	movl	$1, %edx
	callq	_ZN4core3fmt9Arguments9new_const17h600ff925412ede75E
	leaq	8(%rsp), %rdi
	callq	*_ZN3std2io5stdio6_print17ha0212c65ac6652d4E@GOTPCREL(%rip)
	.loc	9 3 2 epilogue_begin
	addq	$56, %rsp
	.cfi_def_cfa_offset 8
	retq
.Ltmp27:
.Lfunc_end9:
	.size	_ZN16cargo_rustc_test4main17h6f4ee350dbc3533eE, .Lfunc_end9-_ZN16cargo_rustc_test4main17h6f4ee350dbc3533eE
	.cfi_endproc

	.section	.text.main,"ax",@progbits
	.globl	main
	.p2align	4, 0x90
	.type	main,@function
main:
.Lfunc_begin10:
	.cfi_startproc
	pushq	%rax
	.cfi_def_cfa_offset 16
	movq	%rsi, %rdx
	movq	__rustc_debug_gdb_scripts_section__@GOTPCREL(%rip), %rax
	movb	(%rax), %al
	movslq	%edi, %rsi
	leaq	_ZN16cargo_rustc_test4main17h6f4ee350dbc3533eE(%rip), %rdi
	xorl	%ecx, %ecx
	callq	_ZN3std2rt10lang_start17h6c79dc9752266d3fE
	popq	%rcx
	.cfi_def_cfa_offset 8
	retq
.Lfunc_end10:
	.size	main, .Lfunc_end10-main
	.cfi_endproc

	.type	.L__unnamed_1,@object
	.section	.data.rel.ro..L__unnamed_1,"aw",@progbits
	.p2align	3, 0x0
.L__unnamed_1:
	.quad	_ZN4core3ptr85drop_in_place$LT$std..rt..lang_start$LT$$LP$$RP$$GT$..$u7b$$u7b$closure$u7d$$u7d$$GT$17h569c6b3f6841fb8eE
	.asciz	"\b\000\000\000\000\000\000\000\b\000\000\000\000\000\000"
	.quad	_ZN4core3ops8function6FnOnce40call_once$u7b$$u7b$vtable.shim$u7d$$u7d$17h00826ed0eb83ff4bE
	.quad	_ZN3std2rt10lang_start28_$u7b$$u7b$closure$u7d$$u7d$17he5098eb6c8c9e4d1E
	.quad	_ZN3std2rt10lang_start28_$u7b$$u7b$closure$u7d$$u7d$17he5098eb6c8c9e4d1E
	.size	.L__unnamed_1, 48

	.type	.L__unnamed_2,@object
	.section	.rodata..L__unnamed_2,"a",@progbits
	.p2align	3, 0x0
.L__unnamed_2:
	.size	.L__unnamed_2, 0

	.type	.L__unnamed_6,@object
	.section	.rodata..L__unnamed_6,"a",@progbits
.L__unnamed_6:
	.ascii	"invalid args"
	.size	.L__unnamed_6, 12

	.type	.L__unnamed_3,@object
	.section	.data.rel.ro..L__unnamed_3,"aw",@progbits
	.p2align	3, 0x0
.L__unnamed_3:
	.quad	.L__unnamed_6
	.asciz	"\f\000\000\000\000\000\000"
	.size	.L__unnamed_3, 16

	.type	.L__unnamed_7,@object
	.section	.rodata..L__unnamed_7,"a",@progbits
.L__unnamed_7:
	.ascii	"/rustc/82e1608dfa6e0b5569232559e3d385fea5a93112/library/core/src/fmt/mod.rs"
	.size	.L__unnamed_7, 75

	.type	.L__unnamed_4,@object
	.section	.data.rel.ro..L__unnamed_4,"aw",@progbits
	.p2align	3, 0x0
.L__unnamed_4:
	.quad	.L__unnamed_7
	.asciz	"K\000\000\000\000\000\000\000C\001\000\000\r\000\000"
	.size	.L__unnamed_4, 24

	.type	.L__unnamed_8,@object
	.section	.rodata..L__unnamed_8,"a",@progbits
.L__unnamed_8:
	.ascii	"Hello, world!\n"
	.size	.L__unnamed_8, 14

	.type	.L__unnamed_5,@object
	.section	.data.rel.ro..L__unnamed_5,"aw",@progbits
	.p2align	3, 0x0
.L__unnamed_5:
	.quad	.L__unnamed_8
	.asciz	"\016\000\000\000\000\000\000"
	.size	.L__unnamed_5, 16

	.type	__rustc_debug_gdb_scripts_section__,@object
	.section	.debug_gdb_scripts,"aMS",@progbits,1,unique,1
	.weak	__rustc_debug_gdb_scripts_section__
__rustc_debug_gdb_scripts_section__:
	.asciz	"\001gdb_load_rust_pretty_printers.py"
	.size	__rustc_debug_gdb_scripts_section__, 34

	.section	.data.rel.ro..L__unnamed_1,"aw",@progbits
.Lsec_end0:
	.section	.text._ZN3std10sys_common9backtrace28__rust_begin_short_backtrace17hfefa000b5d799abcE,"ax",@progbits
.Lsec_end1:
	.section	.text._ZN3std2rt10lang_start17h6c79dc9752266d3fE,"ax",@progbits
.Lsec_end2:
	.section	".text._ZN3std2rt10lang_start28_$u7b$$u7b$closure$u7d$$u7d$17he5098eb6c8c9e4d1E","ax",@progbits
.Lsec_end3:
	.section	.text._ZN4core3fmt9Arguments9new_const17h600ff925412ede75E,"ax",@progbits
.Lsec_end4:
	.section	".text._ZN4core3ops8function6FnOnce40call_once$u7b$$u7b$vtable.shim$u7d$$u7d$17h00826ed0eb83ff4bE","ax",@progbits
.Lsec_end5:
	.section	.text._ZN4core3ops8function6FnOnce9call_once17h8440d6d39ce03527E,"ax",@progbits
.Lsec_end6:
	.section	.text._ZN4core3ops8function6FnOnce9call_once17hf448973f4f8dc96fE,"ax",@progbits
.Lsec_end7:
	.section	".text._ZN4core3ptr85drop_in_place$LT$std..rt..lang_start$LT$$LP$$RP$$GT$..$u7b$$u7b$closure$u7d$$u7d$$GT$17h569c6b3f6841fb8eE","ax",@progbits
.Lsec_end8:
	.section	".text._ZN54_$LT$$LP$$RP$$u20$as$u20$std..process..Termination$GT$6report17h2adc51a03d32ff63E","ax",@progbits
.Lsec_end9:
	.section	.text._ZN16cargo_rustc_test4main17h6f4ee350dbc3533eE,"ax",@progbits
.Lsec_end10:
	.section	.data.DW.ref.rust_eh_personality,"aGw",@progbits,DW.ref.rust_eh_personality,comdat
	.p2align	3, 0x0
	.type	DW.ref.rust_eh_personality,@object
	.size	DW.ref.rust_eh_personality, 8
DW.ref.rust_eh_personality:
	.quad	rust_eh_personality
	.ident	"rustc version 1.75.0 (82e1608df 2023-12-21)"
	.section	".note.GNU-stack","",@progbits